target datalayout = "e-m:e-p270:32:32-p271:32:32-p272:64:64-i64:64-i128:128-f80:128-n8:16:32:64-S128"
target triple = "x86_64-unknown-linux-gnu"

%"class.QuantLib::GFunctionFactory::GFunctionStandard" = type { %"class.QuantLib::GFunction", i32, double, i64 }
%"class.QuantLib::GFunction" = type { ptr }

; Function Attrs: mustprogress nounwind uwtable
define noundef double @_ZN8QuantLib16GFunctionFactory17GFunctionStandardclEd(ptr noundef nonnull align 8 dereferenceable(32) %this, double noundef %x) unnamed_addr #1 align 2 {
entry:
  %this.addr = alloca ptr, align 8
  %x.addr = alloca double, align 8
  %n = alloca double, align 8
  store ptr %this, ptr %this.addr, align 8, !tbaa !3
  store double %x, ptr %x.addr, align 8, !tbaa !18
  %this1 = load ptr, ptr %this.addr, align 8
  call void @llvm.lifetime.start.p0(i64 8, ptr %n) #18
  %swapLength_ = getelementptr inbounds nuw %"class.QuantLib::GFunctionFactory::GFunctionStandard", ptr %this1, i32 0, i32 3
  %0 = load i64, ptr %swapLength_, align 8, !tbaa !121
  %conv = uitofp i64 %0 to double
  %q_ = getelementptr inbounds nuw %"class.QuantLib::GFunctionFactory::GFunctionStandard", ptr %this1, i32 0, i32 1
  %1 = load i32, ptr %q_, align 8, !tbaa !124
  %conv2 = sitofp i32 %1 to double
  %mul = fmul double %conv, %conv2
  store double %mul, ptr %n, align 8, !tbaa !18
  %2 = load double, ptr %x.addr, align 8, !tbaa !18
  %3 = load double, ptr %x.addr, align 8, !tbaa !18
  %q_3 = getelementptr inbounds nuw %"class.QuantLib::GFunctionFactory::GFunctionStandard", ptr %this1, i32 0, i32 1
  %4 = load i32, ptr %q_3, align 8, !tbaa !124
  %conv4 = sitofp i32 %4 to double
  %div = fdiv double %3, %conv4
  %add = fadd double 1.000000e+00, %div
  %delta_ = getelementptr inbounds nuw %"class.QuantLib::GFunctionFactory::GFunctionStandard", ptr %this1, i32 0, i32 2
  %5 = load double, ptr %delta_, align 8, !tbaa !125
  %call = call double @pow(double noundef %add, double noundef %5) #18, !tbaa !32
  %div5 = fdiv double %2, %call
  %mul6 = fmul double %div5, 1.000000e+00
  %6 = load double, ptr %x.addr, align 8, !tbaa !18
  %q_7 = getelementptr inbounds nuw %"class.QuantLib::GFunctionFactory::GFunctionStandard", ptr %this1, i32 0, i32 1
  %7 = load i32, ptr %q_7, align 8, !tbaa !124
  %conv8 = sitofp i32 %7 to double
  %div9 = fdiv double %6, %conv8
  %add10 = fadd double 1.000000e+00, %div9
  %8 = load double, ptr %n, align 8, !tbaa !18
  %call11 = call double @pow(double noundef %add10, double noundef %8) #18, !tbaa !32
  %div12 = fdiv double 1.000000e+00, %call11
  %sub = fsub double 1.000000e+00, %div12
  %div13 = fdiv double %mul6, %sub
  call void @llvm.lifetime.end.p0(i64 8, ptr %n) #18
  ret double %div13
}