; Function Attrs: mustprogress nofree nounwind willreturn memory(write, argmem: readwrite) uwtable
define noundef double @_ZN8QuantLib16GFunctionFactory17GFunctionStandardclEd(ptr nocapture noundef nonnull readonly align 8 dereferenceable(32) %this, double noundef %x) unnamed_addr #20 align 2 {
entry:
  %swapLength_ = getelementptr inbounds nuw i8, ptr %this, i64 24
  %0 = load i64, ptr %swapLength_, align 8, !tbaa !136
  %conv = uitofp i64 %0 to double
  %q_ = getelementptr inbounds nuw i8, ptr %this, i64 8
  %1 = load i32, ptr %q_, align 8, !tbaa !132
  %conv2 = sitofp i32 %1 to double
  %mul = fmul double %conv, %conv2
  %div = fdiv double %x, %conv2
  %add = fadd double %div, 1.000000e+00
  %delta_ = getelementptr inbounds nuw i8, ptr %this, i64 16
  %2 = load double, ptr %delta_, align 8, !tbaa !135
  %call = tail call double @pow(double noundef %add, double noundef %2) #35, !tbaa !58
  %div5 = fdiv double %x, %call
  %3 = load i32, ptr %q_, align 8, !tbaa !132
  %conv8 = sitofp i32 %3 to double
  %div9 = fdiv double %x, %conv8
  %add10 = fadd double %div9, 1.000000e+00
  %call11 = tail call double @pow(double noundef %add10, double noundef %mul) #35, !tbaa !58
  %div12 = fdiv double 1.000000e+00, %call11
  %sub = fsub double 1.000000e+00, %div12
  %div13 = fdiv double %div5, %sub
  ret double %div13
}